; Function Attrs: mustprogress nounwind uwtable
define hidden void @_ZN16NullCheckVisitor15do_ArithmeticOpEP12ArithmeticOp(ptr nocapture noundef nonnull readonly align 8 dereferenceable(16) %0, ptr noundef %1) unnamed_addr #1 align 2 {
  %3 = load ptr, ptr %1, align 8
  %4 = getelementptr inbounds i8, ptr %3, i64 424
  %5 = load ptr, ptr %4, align 8
  %6 = tail call noundef zeroext i1 %5(ptr noundef nonnull align 8 dereferenceable(120) %1) #14
  br i1 %6, label %7, label %11

7:                                                ; preds = %2
  %8 = getelementptr inbounds i8, ptr %0, i64 8
  %9 = load ptr, ptr %8, align 8
  %10 = getelementptr inbounds i8, ptr %9, i64 80
  store ptr null, ptr %10, align 8
  br label %11

11:                                               ; preds = %7, %2
  ret void
}